target datalayout = "e-m:e-p270:32:32-p271:32:32-p272:64:64-i64:64-i128:128-f80:128-n8:16:32:64-S128"
target triple = "x86_64-pc-linux-gnu"

%struct.AttrMap = type { ptr, i32 }
%struct.TupleDescData = type { i32, i32, i32, i32, ptr, [0 x %struct.CompactAttribute] }
%struct.CompactAttribute = type { i32, i16, i8, i8, i8, i8, i8, i8, i8 }

; Function Attrs: inlinehint nounwind uwtable
define internal ptr @TupleDescCompactAttr(ptr noundef %0, i32 noundef %1) #3 {
  %3 = alloca ptr, align 8
  %4 = alloca i32, align 4
  %5 = alloca ptr, align 8
  store ptr %0, ptr %3, align 8
  store i32 %1, ptr %4, align 4
  call void @llvm.lifetime.start.p0(i64 8, ptr %5) #6
  %6 = load ptr, ptr %3, align 8
  %7 = getelementptr inbounds nuw %struct.TupleDescData, ptr %6, i32 0, i32 5
  %8 = load i32, ptr %4, align 4
  %9 = sext i32 %8 to i64
  %10 = getelementptr inbounds [0 x %struct.CompactAttribute], ptr %7, i64 0, i64 %9
  store ptr %10, ptr %5, align 8
  %11 = load ptr, ptr %5, align 8
  call void @llvm.lifetime.end.p0(i64 8, ptr %5) #6
  ret ptr %11
}

; Function Attrs: nounwind uwtable
define dso_local void @free_attrmap(ptr noundef %0) #0 {
  %2 = alloca ptr, align 8
  store ptr %0, ptr %2, align 8
  %3 = load ptr, ptr %2, align 8
  %4 = getelementptr inbounds nuw %struct.AttrMap, ptr %3, i32 0, i32 0
  %5 = load ptr, ptr %4, align 8
  call void @pfree(ptr noundef %5)
  %6 = load ptr, ptr %2, align 8
  call void @pfree(ptr noundef %6)
  ret void
}

; Function Attrs: nounwind uwtable
define internal zeroext i1 @check_attrmap_match(ptr noundef %0, ptr noundef %1, ptr noundef %2) #0 {
  %4 = alloca i1, align 1
  %5 = alloca ptr, align 8
  %6 = alloca ptr, align 8
  %7 = alloca ptr, align 8
  %8 = alloca i32, align 4
  %9 = alloca i32, align 4
  %10 = alloca ptr, align 8
  %11 = alloca ptr, align 8
  store ptr %0, ptr %5, align 8
  store ptr %1, ptr %6, align 8
  store ptr %2, ptr %7, align 8
  call void @llvm.lifetime.start.p0(i64 4, ptr %8) #6
  %12 = load ptr, ptr %5, align 8
  %13 = getelementptr inbounds nuw %struct.TupleDescData, ptr %12, i32 0, i32 0
  %14 = load i32, ptr %13, align 8
  %15 = load ptr, ptr %6, align 8
  %16 = getelementptr inbounds nuw %struct.TupleDescData, ptr %15, i32 0, i32 0
  %17 = load i32, ptr %16, align 8
  %18 = icmp ne i32 %14, %17
  br i1 %18, label %19, label %20

19:                                               ; preds = %3
  store i1 false, ptr %4, align 1
  store i32 1, ptr %9, align 4
  br label %95

20:                                               ; preds = %3
  store i32 0, ptr %8, align 4
  br label %21

21:                                               ; preds = %91, %20
  %22 = load i32, ptr %8, align 4
  %23 = load ptr, ptr %7, align 8
  %24 = getelementptr inbounds nuw %struct.AttrMap, ptr %23, i32 0, i32 1
  %25 = load i32, ptr %24, align 8
  %26 = icmp slt i32 %22, %25
  br i1 %26, label %27, label %94

27:                                               ; preds = %21
  call void @llvm.lifetime.start.p0(i64 8, ptr %10) #6
  %28 = load ptr, ptr %5, align 8
  %29 = load i32, ptr %8, align 4
  %30 = call ptr @TupleDescCompactAttr(ptr noundef %28, i32 noundef %29)
  store ptr %30, ptr %10, align 8
  call void @llvm.lifetime.start.p0(i64 8, ptr %11) #6
  %31 = load ptr, ptr %10, align 8
  %32 = getelementptr inbounds nuw %struct.CompactAttribute, ptr %31, i32 0, i32 4
  %33 = load i8, ptr %32, align 4, !range !4, !noundef !5
  %34 = trunc i8 %33 to i1
  br i1 %34, label %35, label %36

35:                                               ; preds = %27
  store i1 false, ptr %4, align 1
  store i32 1, ptr %9, align 4
  br label %89

36:                                               ; preds = %27
  %37 = load ptr, ptr %7, align 8
  %38 = getelementptr inbounds nuw %struct.AttrMap, ptr %37, i32 0, i32 0
  %39 = load ptr, ptr %38, align 8
  %40 = load i32, ptr %8, align 4
  %41 = sext i32 %40 to i64
  %42 = getelementptr inbounds i16, ptr %39, i64 %41
  %43 = load i16, ptr %42, align 2
  %44 = sext i16 %43 to i32
  %45 = load i32, ptr %8, align 4
  %46 = add i32 %45, 1
  %47 = icmp eq i32 %44, %46
  br i1 %47, label %48, label %49

48:                                               ; preds = %36
  store i32 4, ptr %9, align 4
  br label %89

49:                                               ; preds = %36
  %50 = load ptr, ptr %6, align 8
  %51 = load i32, ptr %8, align 4
  %52 = call ptr @TupleDescCompactAttr(ptr noundef %50, i32 noundef %51)
  store ptr %52, ptr %11, align 8
  %53 = load ptr, ptr %7, align 8
  %54 = getelementptr inbounds nuw %struct.AttrMap, ptr %53, i32 0, i32 0
  %55 = load ptr, ptr %54, align 8
  %56 = load i32, ptr %8, align 4
  %57 = sext i32 %56 to i64
  %58 = getelementptr inbounds i16, ptr %55, i64 %57
  %59 = load i16, ptr %58, align 2
  %60 = sext i16 %59 to i32
  %61 = icmp eq i32 %60, 0
  br i1 %61, label %62, label %88

62:                                               ; preds = %49
  %63 = load ptr, ptr %10, align 8
  %64 = getelementptr inbounds nuw %struct.CompactAttribute, ptr %63, i32 0, i32 5
  %65 = load i8, ptr %64, align 1, !range !4, !noundef !5
  %66 = trunc i8 %65 to i1
  br i1 %66, label %67, label %88

67:                                               ; preds = %62
  %68 = load ptr, ptr %10, align 8
  %69 = getelementptr inbounds nuw %struct.CompactAttribute, ptr %68, i32 0, i32 1
  %70 = load i16, ptr %69, align 4
  %71 = sext i16 %70 to i32
  %72 = load ptr, ptr %11, align 8
  %73 = getelementptr inbounds nuw %struct.CompactAttribute, ptr %72, i32 0, i32 1
  %74 = load i16, ptr %73, align 4
  %75 = sext i16 %74 to i32
  %76 = icmp eq i32 %71, %75
  br i1 %76, label %77, label %88

77:                                               ; preds = %67
  %78 = load ptr, ptr %10, align 8
  %79 = getelementptr inbounds nuw %struct.CompactAttribute, ptr %78, i32 0, i32 8
  %80 = load i8, ptr %79, align 4
  %81 = zext i8 %80 to i32
  %82 = load ptr, ptr %11, align 8
  %83 = getelementptr inbounds nuw %struct.CompactAttribute, ptr %82, i32 0, i32 8
  %84 = load i8, ptr %83, align 4
  %85 = zext i8 %84 to i32
  %86 = icmp eq i32 %81, %85
  br i1 %86, label %87, label %88

87:                                               ; preds = %77
  store i32 4, ptr %9, align 4
  br label %89

88:                                               ; preds = %77, %67, %62, %49
  store i1 false, ptr %4, align 1
  store i32 1, ptr %9, align 4
  br label %89

89:                                               ; preds = %88, %87, %48, %35
  call void @llvm.lifetime.end.p0(i64 8, ptr %11) #6
  call void @llvm.lifetime.end.p0(i64 8, ptr %10) #6
  %90 = load i32, ptr %9, align 4
  switch i32 %90, label %95 [
    i32 4, label %91
  ]

91:                                               ; preds = %89
  %92 = load i32, ptr %8, align 4
  %93 = add i32 %92, 1
  store i32 %93, ptr %8, align 4
  br label %21, !llvm.loop !10

94:                                               ; preds = %21
  store i1 true, ptr %4, align 1
  store i32 1, ptr %9, align 4
  br label %95

95:                                               ; preds = %94, %89, %19
  call void @llvm.lifetime.end.p0(i64 4, ptr %8) #6
  %96 = load i1, ptr %4, align 1
  ret i1 %96
}

; Function Attrs: nounwind uwtable
define dso_local ptr @build_attrmap_by_name_if_req(ptr noundef %0, ptr noundef %1, i1 noundef zeroext %2) #0 {
  %4 = alloca ptr, align 8
  %5 = alloca ptr, align 8
  %6 = alloca ptr, align 8
  %7 = alloca i8, align 1
  %8 = alloca ptr, align 8
  %9 = alloca i32, align 4
  store ptr %0, ptr %5, align 8
  store ptr %1, ptr %6, align 8
  %10 = zext i1 %2 to i8
  store i8 %10, ptr %7, align 1
  call void @llvm.lifetime.start.p0(i64 8, ptr %8) #6
  %11 = load ptr, ptr %5, align 8
  %12 = load ptr, ptr %6, align 8
  %13 = load i8, ptr %7, align 1, !range !4, !noundef !5
  %14 = trunc i8 %13 to i1
  %15 = call ptr @build_attrmap_by_name(ptr noundef %11, ptr noundef %12, i1 noundef zeroext %14)
  store ptr %15, ptr %8, align 8
  %16 = load ptr, ptr %5, align 8
  %17 = load ptr, ptr %6, align 8
  %18 = load ptr, ptr %8, align 8
  %19 = call zeroext i1 @check_attrmap_match(ptr noundef %16, ptr noundef %17, ptr noundef %18)
  br i1 %19, label %20, label %22

20:                                               ; preds = %3
  %21 = load ptr, ptr %8, align 8
  call void @free_attrmap(ptr noundef %21)
  store ptr null, ptr %4, align 8
  store i32 1, ptr %9, align 4
  br label %24

22:                                               ; preds = %3
  %23 = load ptr, ptr %8, align 8
  store ptr %23, ptr %4, align 8
  store i32 1, ptr %9, align 4
  br label %24

24:                                               ; preds = %22, %20
  call void @llvm.lifetime.end.p0(i64 8, ptr %8) #6
  %25 = load ptr, ptr %4, align 8
  ret ptr %25
}