; Function Attrs: nounwind uwtable
define dso_local ptr @build_attrmap_by_name_if_req(ptr noundef readonly captures(none) %0, ptr noundef %1, i1 noundef zeroext %2) local_unnamed_addr #0 {
  %4 = tail call ptr @build_attrmap_by_name(ptr noundef %0, ptr noundef %1, i1 noundef zeroext %2)
  %5 = load i32, ptr %0, align 8
  %6 = load i32, ptr %1, align 8
  %.not.i = icmp eq i32 %5, %6
  br i1 %.not.i, label %.preheader.i, label %check_attrmap_match.exit.thread

.preheader.i:                                     ; preds = %3
  %7 = getelementptr inbounds nuw i8, ptr %1, i64 24
  %8 = getelementptr inbounds nuw i8, ptr %0, i64 24
  %9 = getelementptr inbounds nuw i8, ptr %4, i64 8
  %10 = load i32, ptr %9, align 8
  %11 = icmp sgt i32 %10, 0
  br i1 %11, label %.lr.ph.preheader.i, label %.preheader.i.check_attrmap_match.exit_crit_edge

.preheader.i.check_attrmap_match.exit_crit_edge:  ; preds = %.preheader.i
  %.pre = load ptr, ptr %4, align 8
  br label %check_attrmap_match.exit

.lr.ph.preheader.i:                               ; preds = %.preheader.i
  %wide.trip.count.i = zext nneg i32 %10 to i64
  br label %.lr.ph.i

.lr.ph.i:                                         ; preds = %42, %.lr.ph.preheader.i
  %indvars.iv.i = phi i64 [ 0, %.lr.ph.preheader.i ], [ %indvars.iv.next.i, %42 ]
  %12 = getelementptr inbounds nuw [0 x %struct.CompactAttribute], ptr %8, i64 0, i64 %indvars.iv.i
  %13 = getelementptr inbounds nuw i8, ptr %12, i64 8
  %14 = load i8, ptr %13, align 4, !range !4, !noundef !5
  %15 = trunc nuw i8 %14 to i1
  br i1 %15, label %check_attrmap_match.exit.thread, label %16

16:                                               ; preds = %.lr.ph.i
  %17 = load ptr, ptr %4, align 8
  %18 = getelementptr inbounds nuw i16, ptr %17, i64 %indvars.iv.i
  %19 = load i16, ptr %18, align 2
  %20 = sext i16 %19 to i64
  %indvars.iv.next.i = add nuw nsw i64 %indvars.iv.i, 1
  %21 = and i64 %20, 4294967295
  %22 = icmp eq i64 %indvars.iv.next.i, %21
  br i1 %22, label %42, label %23

23:                                               ; preds = %16
  %24 = getelementptr inbounds nuw [0 x %struct.CompactAttribute], ptr %7, i64 0, i64 %indvars.iv.i
  %25 = icmp eq i16 %19, 0
  br i1 %25, label %26, label %check_attrmap_match.exit.thread

26:                                               ; preds = %23
  %27 = getelementptr inbounds nuw i8, ptr %12, i64 9
  %28 = load i8, ptr %27, align 1, !range !4, !noundef !5
  %29 = trunc nuw i8 %28 to i1
  br i1 %29, label %30, label %check_attrmap_match.exit.thread

30:                                               ; preds = %26
  %31 = getelementptr inbounds nuw i8, ptr %12, i64 4
  %32 = load i16, ptr %31, align 4
  %33 = getelementptr inbounds nuw i8, ptr %24, i64 4
  %34 = load i16, ptr %33, align 4
  %35 = icmp eq i16 %32, %34
  br i1 %35, label %36, label %check_attrmap_match.exit.thread

36:                                               ; preds = %30
  %37 = getelementptr inbounds nuw i8, ptr %12, i64 12
  %38 = load i8, ptr %37, align 4
  %39 = getelementptr inbounds nuw i8, ptr %24, i64 12
  %40 = load i8, ptr %39, align 4
  %41 = icmp eq i8 %38, %40
  br i1 %41, label %42, label %check_attrmap_match.exit.thread

42:                                               ; preds = %36, %16
  %exitcond.not.i = icmp eq i64 %indvars.iv.next.i, %wide.trip.count.i
  br i1 %exitcond.not.i, label %check_attrmap_match.exit, label %.lr.ph.i, !llvm.loop !10

check_attrmap_match.exit:                         ; preds = %42, %.preheader.i.check_attrmap_match.exit_crit_edge
  %43 = phi ptr [ %.pre, %.preheader.i.check_attrmap_match.exit_crit_edge ], [ %17, %42 ]
  tail call void @pfree(ptr noundef %43) #5
  tail call void @pfree(ptr noundef nonnull %4) #5
  br label %check_attrmap_match.exit.thread

check_attrmap_match.exit.thread:                  ; preds = %23, %26, %30, %36, %.lr.ph.i, %3, %check_attrmap_match.exit
  %.0 = phi ptr [ null, %check_attrmap_match.exit ], [ %4, %3 ], [ %4, %.lr.ph.i ], [ %4, %36 ], [ %4, %30 ], [ %4, %26 ], [ %4, %23 ]
  ret ptr %.0
}